target datalayout = "e-m:e-p270:32:32-p271:32:32-p272:64:64-i64:64-i128:128-f80:128-n8:16:32:64-S128"
target triple = "x86_64-pc-linux-gnu"

@.str = private unnamed_addr constant [32 x i8] c"../openssl/test/testutil/load.c\00", align 1
@.str.1 = private unnamed_addr constant [5 x i8] c"file\00", align 1
@.str.7 = private unnamed_addr constant [2 x i8] c"r\00", align 1

; Function Attrs: inlinehint nounwind uwtable
define internal ptr @ossl_check_X509_type(ptr noundef %0) #3 {
  %2 = alloca ptr, align 8
  store ptr %0, ptr %2, align 8, !tbaa !10
  %3 = load ptr, ptr %2, align 8, !tbaa !10
  ret ptr %3
}

; Function Attrs: inlinehint nounwind uwtable
define internal ptr @ossl_check_X509_sk_type(ptr noundef %0) #3 {
  %2 = alloca ptr, align 8
  store ptr %0, ptr %2, align 8, !tbaa !14
  %3 = load ptr, ptr %2, align 8, !tbaa !14
  ret ptr %3
}

; Function Attrs: nounwind uwtable
define ptr @load_certs_pem(ptr noundef %0) #0 {
  %2 = alloca ptr, align 8
  %3 = alloca ptr, align 8
  %4 = alloca ptr, align 8
  %5 = alloca ptr, align 8
  %6 = alloca ptr, align 8
  %7 = alloca i32, align 4
  store ptr %0, ptr %3, align 8, !tbaa !3
  call void @llvm.lifetime.start.p0(i64 8, ptr %4) #4
  call void @llvm.lifetime.start.p0(i64 8, ptr %5) #4
  call void @llvm.lifetime.start.p0(i64 8, ptr %6) #4
  %8 = load ptr, ptr %3, align 8, !tbaa !3
  %9 = call i32 @test_ptr(ptr noundef @.str, i32 noundef 39, ptr noundef @.str.1, ptr noundef %8)
  %10 = icmp ne i32 %9, 0
  br i1 %10, label %11, label %15

11:                                               ; preds = %1
  %12 = load ptr, ptr %3, align 8, !tbaa !3
  %13 = call ptr @BIO_new_file(ptr noundef %12, ptr noundef @.str.7)
  store ptr %13, ptr %5, align 8, !tbaa !12
  %14 = icmp eq ptr %13, null
  br i1 %14, label %15, label %16

15:                                               ; preds = %11, %1
  store ptr null, ptr %2, align 8
  store i32 1, ptr %7, align 4
  br label %55

16:                                               ; preds = %11
  %17 = call ptr @OPENSSL_sk_new_null()
  store ptr %17, ptr %4, align 8, !tbaa !14
  %18 = load ptr, ptr %4, align 8, !tbaa !14
  %19 = icmp eq ptr %18, null
  br i1 %19, label %20, label %23

20:                                               ; preds = %16
  %21 = load ptr, ptr %5, align 8, !tbaa !12
  %22 = call i32 @BIO_free(ptr noundef %21)
  store ptr null, ptr %2, align 8
  store i32 1, ptr %7, align 4
  br label %55

23:                                               ; preds = %16
  %24 = call i32 @ERR_set_mark()
  br label %25

25:                                               ; preds = %48, %23
  %26 = load ptr, ptr %5, align 8, !tbaa !12
  %27 = call ptr @PEM_read_bio_X509(ptr noundef %26, ptr noundef null, ptr noundef null, ptr noundef null)
  store ptr %27, ptr %6, align 8, !tbaa !10
  %28 = load ptr, ptr %6, align 8, !tbaa !10
  %29 = icmp ne ptr %28, null
  br i1 %29, label %30, label %41

30:                                               ; preds = %25
  %31 = load ptr, ptr %4, align 8, !tbaa !14
  %32 = call ptr @ossl_check_X509_sk_type(ptr noundef %31)
  %33 = load ptr, ptr %6, align 8, !tbaa !10
  %34 = call ptr @ossl_check_X509_type(ptr noundef %33)
  %35 = call i32 @OPENSSL_sk_push(ptr noundef %32, ptr noundef %34)
  %36 = icmp ne i32 %35, 0
  br i1 %36, label %41, label %37

37:                                               ; preds = %30
  %38 = load ptr, ptr %4, align 8, !tbaa !14
  call void @OSSL_STACK_OF_X509_free(ptr noundef %38)
  %39 = load ptr, ptr %5, align 8, !tbaa !12
  %40 = call i32 @BIO_free(ptr noundef %39)
  store ptr null, ptr %2, align 8
  store i32 1, ptr %7, align 4
  br label %55

41:                                               ; preds = %30, %25
  %42 = load ptr, ptr %6, align 8, !tbaa !10
  %43 = icmp eq ptr %42, null
  br i1 %43, label %44, label %46

44:                                               ; preds = %41
  %45 = call i32 @ERR_pop_to_mark()
  br label %46

46:                                               ; preds = %44, %41
  br label %47

47:                                               ; preds = %46
  br label %48

48:                                               ; preds = %47
  %49 = load ptr, ptr %6, align 8, !tbaa !10
  %50 = icmp ne ptr %49, null
  br i1 %50, label %25, label %51, !llvm.loop !16

51:                                               ; preds = %48
  %52 = load ptr, ptr %5, align 8, !tbaa !12
  %53 = call i32 @BIO_free(ptr noundef %52)
  %54 = load ptr, ptr %4, align 8, !tbaa !14
  store ptr %54, ptr %2, align 8
  store i32 1, ptr %7, align 4
  br label %55

55:                                               ; preds = %51, %37, %20, %15
  call void @llvm.lifetime.end.p0(i64 8, ptr %6) #4
  call void @llvm.lifetime.end.p0(i64 8, ptr %5) #4
  call void @llvm.lifetime.end.p0(i64 8, ptr %4) #4
  %56 = load ptr, ptr %2, align 8
  ret ptr %56
}