; Function Attrs: nounwind uwtable
define ptr @load_certs_pem(ptr noundef %0) local_unnamed_addr #0 {
  %2 = tail call i32 @test_ptr(ptr noundef nonnull @.str, i32 noundef 39, ptr noundef nonnull @.str.1, ptr noundef %0) #3
  %.not = icmp eq i32 %2, 0
  br i1 %.not, label %19, label %3

3:                                                ; preds = %1
  %4 = tail call ptr @BIO_new_file(ptr noundef %0, ptr noundef nonnull @.str.7) #3
  %5 = icmp eq ptr %4, null
  br i1 %5, label %19, label %6

6:                                                ; preds = %3
  %7 = tail call ptr @OPENSSL_sk_new_null() #3
  %8 = icmp eq ptr %7, null
  br i1 %8, label %.sink.split, label %9

9:                                                ; preds = %6
  %10 = tail call i32 @ERR_set_mark() #3
  br label %11

11:                                               ; preds = %13, %9
  %12 = tail call ptr @PEM_read_bio_X509(ptr noundef nonnull %4, ptr noundef null, ptr noundef null, ptr noundef null) #3
  %.not18 = icmp eq ptr %12, null
  br i1 %.not18, label %16, label %13

13:                                               ; preds = %11
  %14 = tail call i32 @OPENSSL_sk_push(ptr noundef nonnull %7, ptr noundef nonnull %12) #3
  %.not19 = icmp eq i32 %14, 0
  br i1 %.not19, label %15, label %11, !llvm.loop !8

15:                                               ; preds = %13
  tail call void @OSSL_STACK_OF_X509_free(ptr noundef nonnull %7) #3
  br label %.sink.split

16:                                               ; preds = %11
  %17 = tail call i32 @ERR_pop_to_mark() #3
  br label %.sink.split

.sink.split:                                      ; preds = %6, %15, %16
  %.0.ph = phi ptr [ null, %15 ], [ %7, %16 ], [ null, %6 ]
  %18 = tail call i32 @BIO_free(ptr noundef nonnull %4) #3
  br label %19

19:                                               ; preds = %.sink.split, %1, %3
  %.0 = phi ptr [ null, %3 ], [ null, %1 ], [ %.0.ph, %.sink.split ]
  ret ptr %.0
}